target datalayout = "e-m:e-p270:32:32-p271:32:32-p272:64:64-i64:64-i128:128-f80:128-n8:16:32:64-S128"
target triple = "x86_64-pc-linux-gnu"

%struct.Aig_Man_t_ = type { ptr, ptr, ptr, ptr, ptr, ptr, ptr, %struct.Aig_Obj_t_, i32, i32, i32, i32, i32, i32, [7 x i32], i32, ptr, i32, ptr, i32, ptr, i32, i32, i32, ptr, i32, i32, i32, i32, i32, ptr, ptr, i32, ptr, ptr, i32, ptr, ptr, i32, i32, i32, ptr, ptr, ptr, ptr, ptr, ptr, ptr, ptr, ptr, ptr, ptr, ptr, ptr, ptr, i32, ptr, ptr, ptr, ptr, i32, i64, i64, i64, ptr, ptr }
%struct.Aig_Obj_t_ = type { %union.anon, ptr, ptr, i64, i32, i32, %union.anon.0 }
%union.anon = type { ptr }
%union.anon.0 = type { ptr }
%struct.Vec_Ptr_t_ = type { i32, i32, ptr }

; Function Attrs: inlinehint nounwind uwtable
define internal ptr @Vec_PtrEntry(ptr noundef %0, i32 noundef %1) #4 {
  %3 = alloca ptr, align 8
  %4 = alloca i32, align 4
  store ptr %0, ptr %3, align 8, !tbaa !32
  store i32 %1, ptr %4, align 4, !tbaa !22
  %5 = load ptr, ptr %3, align 8, !tbaa !32
  %6 = getelementptr inbounds nuw %struct.Vec_Ptr_t_, ptr %5, i32 0, i32 2
  %7 = load ptr, ptr %6, align 8, !tbaa !35
  %8 = load i32, ptr %4, align 4, !tbaa !22
  %9 = sext i32 %8 to i64
  %10 = getelementptr inbounds ptr, ptr %7, i64 %9
  %11 = load ptr, ptr %10, align 8, !tbaa !36
  ret ptr %11
}

; Function Attrs: inlinehint nounwind uwtable
define internal i32 @Vec_PtrSize(ptr noundef %0) #4 {
  %2 = alloca ptr, align 8
  store ptr %0, ptr %2, align 8, !tbaa !32
  %3 = load ptr, ptr %2, align 8, !tbaa !32
  %4 = getelementptr inbounds nuw %struct.Vec_Ptr_t_, ptr %3, i32 0, i32 1
  %5 = load i32, ptr %4, align 4, !tbaa !33
  ret i32 %5
}

; Function Attrs: nounwind uwtable
define void @Aig_ManSetCioIds(ptr noundef %0) #0 {
  %2 = alloca ptr, align 8
  %3 = alloca ptr, align 8
  %4 = alloca i32, align 4
  store ptr %0, ptr %2, align 8, !tbaa !3
  call void @llvm.lifetime.start.p0(i64 8, ptr %3) #10
  call void @llvm.lifetime.start.p0(i64 4, ptr %4) #10
  store i32 0, ptr %4, align 4, !tbaa !22
  br label %5

5:                                                ; preds = %24, %1
  %6 = load i32, ptr %4, align 4, !tbaa !22
  %7 = load ptr, ptr %2, align 8, !tbaa !3
  %8 = getelementptr inbounds nuw %struct.Aig_Man_t_, ptr %7, i32 0, i32 2
  %9 = load ptr, ptr %8, align 8, !tbaa !59
  %10 = call i32 @Vec_PtrSize(ptr noundef %9)
  %11 = icmp slt i32 %6, %10
  br i1 %11, label %12, label %18

12:                                               ; preds = %5
  %13 = load ptr, ptr %2, align 8, !tbaa !3
  %14 = getelementptr inbounds nuw %struct.Aig_Man_t_, ptr %13, i32 0, i32 2
  %15 = load ptr, ptr %14, align 8, !tbaa !59
  %16 = load i32, ptr %4, align 4, !tbaa !22
  %17 = call ptr @Vec_PtrEntry(ptr noundef %15, i32 noundef %16)
  store ptr %17, ptr %3, align 8, !tbaa !24
  br label %18

18:                                               ; preds = %12, %5
  %19 = phi i1 [ false, %5 ], [ true, %12 ]
  br i1 %19, label %20, label %27

20:                                               ; preds = %18
  %21 = load i32, ptr %4, align 4, !tbaa !22
  %22 = load ptr, ptr %3, align 8, !tbaa !24
  %23 = getelementptr inbounds nuw %struct.Aig_Obj_t_, ptr %22, i32 0, i32 0
  store i32 %21, ptr %23, align 8, !tbaa !25
  br label %24

24:                                               ; preds = %20
  %25 = load i32, ptr %4, align 4, !tbaa !22
  %26 = add nsw i32 %25, 1
  store i32 %26, ptr %4, align 4, !tbaa !22
  br label %5, !llvm.loop !75

27:                                               ; preds = %18
  store i32 0, ptr %4, align 4, !tbaa !22
  br label %28

28:                                               ; preds = %47, %27
  %29 = load i32, ptr %4, align 4, !tbaa !22
  %30 = load ptr, ptr %2, align 8, !tbaa !3
  %31 = getelementptr inbounds nuw %struct.Aig_Man_t_, ptr %30, i32 0, i32 3
  %32 = load ptr, ptr %31, align 8, !tbaa !30
  %33 = call i32 @Vec_PtrSize(ptr noundef %32)
  %34 = icmp slt i32 %29, %33
  br i1 %34, label %35, label %41

35:                                               ; preds = %28
  %36 = load ptr, ptr %2, align 8, !tbaa !3
  %37 = getelementptr inbounds nuw %struct.Aig_Man_t_, ptr %36, i32 0, i32 3
  %38 = load ptr, ptr %37, align 8, !tbaa !30
  %39 = load i32, ptr %4, align 4, !tbaa !22
  %40 = call ptr @Vec_PtrEntry(ptr noundef %38, i32 noundef %39)
  store ptr %40, ptr %3, align 8, !tbaa !24
  br label %41

41:                                               ; preds = %35, %28
  %42 = phi i1 [ false, %28 ], [ true, %35 ]
  br i1 %42, label %43, label %50

43:                                               ; preds = %41
  %44 = load i32, ptr %4, align 4, !tbaa !22
  %45 = load ptr, ptr %3, align 8, !tbaa !24
  %46 = getelementptr inbounds nuw %struct.Aig_Obj_t_, ptr %45, i32 0, i32 0
  store i32 %44, ptr %46, align 8, !tbaa !25
  br label %47

47:                                               ; preds = %43
  %48 = load i32, ptr %4, align 4, !tbaa !22
  %49 = add nsw i32 %48, 1
  store i32 %49, ptr %4, align 4, !tbaa !22
  br label %28, !llvm.loop !76

50:                                               ; preds = %41
  call void @llvm.lifetime.end.p0(i64 4, ptr %4) #10
  call void @llvm.lifetime.end.p0(i64 8, ptr %3) #10
  ret void
}