; Function Attrs: nofree norecurse nosync nounwind memory(readwrite, inaccessiblemem: none) uwtable
define void @Aig_ManSetCioIds(ptr noundef readonly captures(none) %0) local_unnamed_addr #0 {
  %2 = getelementptr inbounds nuw i8, ptr %0, i64 16
  %3 = load ptr, ptr %2, align 8, !tbaa !53
  %4 = getelementptr i8, ptr %3, i64 4
  %.val1518 = load i32, ptr %4, align 4, !tbaa !22
  %5 = icmp sgt i32 %.val1518, 0
  br i1 %5, label %.lr.ph, label %.critedge.preheader

.critedge.preheader:                              ; preds = %.lr.ph, %1
  %6 = getelementptr inbounds nuw i8, ptr %0, i64 24
  %7 = load ptr, ptr %6, align 8, !tbaa !31
  %8 = getelementptr i8, ptr %7, i64 4
  %.val20 = load i32, ptr %8, align 4, !tbaa !22
  %9 = icmp sgt i32 %.val20, 0
  br i1 %9, label %.critedge, label %.critedge2

.lr.ph:                                           ; preds = %1, %.lr.ph
  %indvars.iv = phi i64 [ %indvars.iv.next, %.lr.ph ], [ 0, %1 ]
  %10 = phi ptr [ %15, %.lr.ph ], [ %3, %1 ]
  %11 = getelementptr i8, ptr %10, i64 8
  %.val17 = load ptr, ptr %11, align 8, !tbaa !24
  %12 = getelementptr inbounds nuw ptr, ptr %.val17, i64 %indvars.iv
  %13 = load ptr, ptr %12, align 8, !tbaa !25
  %14 = trunc nuw nsw i64 %indvars.iv to i32
  store i32 %14, ptr %13, align 8, !tbaa !26
  %indvars.iv.next = add nuw nsw i64 %indvars.iv, 1
  %15 = load ptr, ptr %2, align 8, !tbaa !53
  %16 = getelementptr i8, ptr %15, i64 4
  %.val15 = load i32, ptr %16, align 4, !tbaa !22
  %17 = sext i32 %.val15 to i64
  %18 = icmp slt i64 %indvars.iv.next, %17
  br i1 %18, label %.lr.ph, label %.critedge.preheader, !llvm.loop !67

.critedge:                                        ; preds = %.critedge.preheader, %.critedge
  %indvars.iv25 = phi i64 [ %indvars.iv.next26, %.critedge ], [ 0, %.critedge.preheader ]
  %19 = phi ptr [ %24, %.critedge ], [ %7, %.critedge.preheader ]
  %20 = getelementptr i8, ptr %19, i64 8
  %.val16 = load ptr, ptr %20, align 8, !tbaa !24
  %21 = getelementptr inbounds nuw ptr, ptr %.val16, i64 %indvars.iv25
  %22 = load ptr, ptr %21, align 8, !tbaa !25
  %23 = trunc nuw nsw i64 %indvars.iv25 to i32
  store i32 %23, ptr %22, align 8, !tbaa !26
  %indvars.iv.next26 = add nuw nsw i64 %indvars.iv25, 1
  %24 = load ptr, ptr %6, align 8, !tbaa !31
  %25 = getelementptr i8, ptr %24, i64 4
  %.val = load i32, ptr %25, align 4, !tbaa !22
  %26 = sext i32 %.val to i64
  %27 = icmp slt i64 %indvars.iv.next26, %26
  br i1 %27, label %.critedge, label %.critedge2, !llvm.loop !68

.critedge2:                                       ; preds = %.critedge, %.critedge.preheader
  ret void
}